target datalayout = "e-m:e-p270:32:32-p271:32:32-p272:64:64-i64:64-i128:128-f80:128-n8:16:32:64-S128"
target triple = "x86_64-pc-linux-gnu"

%struct.dtMeshTile = type { i32, i32, ptr, ptr, ptr, ptr, ptr, ptr, ptr, ptr, ptr, ptr, i32, i32, ptr }
%struct.dtMeshHeader = type { i32, i32, i32, i32, i32, i32, i32, i32, i32, i32, i32, i32, i32, i32, i32, float, float, float, [3 x float], [3 x float], float }
%struct.dtPoly = type { i32, [6 x i16], [6 x i16], i16, i8, i8 }
%struct.dtPolyDetail = type { i32, i32, i8, i8 }
%struct.dtOffMeshConnection = type { [6 x float], float, i16, i8, i8, i32 }

; Function Attrs: mustprogress nounwind uwtable
define linkonce_odr noundef zeroext i8 @_ZNK6dtPoly7getTypeEv(ptr noundef nonnull align 4 dereferenceable(32) %0) #2 comdat align 2 {
  %2 = alloca ptr, align 8
  store ptr %0, ptr %2, align 8
  %3 = load ptr, ptr %2, align 8
  %4 = getelementptr inbounds %struct.dtPoly, ptr %3, i32 0, i32 5
  %5 = load i8, ptr %4, align 1
  %6 = zext i8 %5 to i32
  %7 = ashr i32 %6, 6
  %8 = trunc i32 %7 to i8
  ret i8 %8
}

; Function Attrs: mustprogress nounwind uwtable
define linkonce_odr noundef i32 @_Z10duTransColjj(i32 noundef %0, i32 noundef %1) #2 comdat {
  %3 = alloca i32, align 4
  %4 = alloca i32, align 4
  store i32 %0, ptr %3, align 4
  store i32 %1, ptr %4, align 4
  %5 = load i32, ptr %4, align 4
  %6 = shl i32 %5, 24
  %7 = load i32, ptr %3, align 4
  %8 = and i32 %7, 16777215
  %9 = or i32 %6, %8
  ret i32 %9
}

; Function Attrs: mustprogress nounwind uwtable
define linkonce_odr noundef zeroext i1 @_Z14dtStatusFailedj(i32 noundef %0) #2 comdat {
  %2 = alloca i32, align 4
  store i32 %0, ptr %2, align 4
  %3 = load i32, ptr %2, align 4
  %4 = and i32 %3, -2147483648
  %5 = icmp ne i32 %4, 0
  ret i1 %5
}

; Function Attrs: mustprogress uwtable
define void @_Z22duDebugDrawNavMeshPolyP11duDebugDrawRK9dtNavMeshjj(ptr noundef %0, ptr noundef nonnull align 8 dereferenceable(100) %1, i32 noundef %2, i32 noundef %3) #0 {
  %5 = alloca ptr, align 8
  %6 = alloca ptr, align 8
  %7 = alloca i32, align 4
  %8 = alloca i32, align 4
  %9 = alloca ptr, align 8
  %10 = alloca ptr, align 8
  %11 = alloca i32, align 4
  %12 = alloca i32, align 4
  %13 = alloca ptr, align 8
  %14 = alloca ptr, align 8
  %15 = alloca i32, align 4
  %16 = alloca ptr, align 8
  %17 = alloca i32, align 4
  store ptr %0, ptr %5, align 8
  store ptr %1, ptr %6, align 8
  store i32 %2, ptr %7, align 4
  store i32 %3, ptr %8, align 4
  %18 = load ptr, ptr %5, align 8
  %19 = icmp ne ptr %18, null
  br i1 %19, label %21, label %20

20:                                               ; preds = %4
  br label %214

21:                                               ; preds = %4
  store ptr null, ptr %9, align 8
  store ptr null, ptr %10, align 8
  %22 = load ptr, ptr %6, align 8
  %23 = load i32, ptr %7, align 4
  %24 = call noundef i32 @_ZNK9dtNavMesh19getTileAndPolyByRefEjPPK10dtMeshTilePPK6dtPoly(ptr noundef nonnull align 8 dereferenceable(100) %22, i32 noundef %23, ptr noundef %9, ptr noundef %10)
  %25 = call noundef zeroext i1 @_Z14dtStatusFailedj(i32 noundef %24)
  br i1 %25, label %26, label %27

26:                                               ; preds = %21
  br label %214

27:                                               ; preds = %21
  %28 = load ptr, ptr %5, align 8
  %29 = load ptr, ptr %28, align 8
  %30 = getelementptr inbounds ptr, ptr %29, i64 2
  %31 = load ptr, ptr %30, align 8
  call void %31(ptr noundef nonnull align 8 dereferenceable(8) %28, i1 noundef zeroext false)
  %32 = load i32, ptr %8, align 4
  %33 = call noundef i32 @_Z10duTransColjj(i32 noundef %32, i32 noundef 64)
  store i32 %33, ptr %11, align 4
  %34 = load ptr, ptr %10, align 8
  %35 = load ptr, ptr %9, align 8
  %36 = getelementptr inbounds %struct.dtMeshTile, ptr %35, i32 0, i32 3
  %37 = load ptr, ptr %36, align 8
  %38 = ptrtoint ptr %34 to i64
  %39 = ptrtoint ptr %37 to i64
  %40 = sub i64 %38, %39
  %41 = sdiv exact i64 %40, 32
  %42 = trunc i64 %41 to i32
  store i32 %42, ptr %12, align 4
  %43 = load ptr, ptr %10, align 8
  %44 = call noundef zeroext i8 @_ZNK6dtPoly7getTypeEv(ptr noundef nonnull align 4 dereferenceable(32) %43)
  %45 = zext i8 %44 to i32
  %46 = icmp eq i32 %45, 1
  br i1 %46, label %47, label %101

47:                                               ; preds = %27
  %48 = load ptr, ptr %9, align 8
  %49 = getelementptr inbounds %struct.dtMeshTile, ptr %48, i32 0, i32 10
  %50 = load ptr, ptr %49, align 8
  %51 = load i32, ptr %12, align 4
  %52 = load ptr, ptr %9, align 8
  %53 = getelementptr inbounds %struct.dtMeshTile, ptr %52, i32 0, i32 2
  %54 = load ptr, ptr %53, align 8
  %55 = getelementptr inbounds %struct.dtMeshHeader, ptr %54, i32 0, i32 14
  %56 = load i32, ptr %55, align 4
  %57 = sub i32 %51, %56
  %58 = zext i32 %57 to i64
  %59 = getelementptr inbounds %struct.dtOffMeshConnection, ptr %50, i64 %58
  store ptr %59, ptr %13, align 8
  %60 = load ptr, ptr %5, align 8
  %61 = load ptr, ptr %60, align 8
  %62 = getelementptr inbounds ptr, ptr %61, i64 4
  %63 = load ptr, ptr %62, align 8
  call void %63(ptr noundef nonnull align 8 dereferenceable(8) %60, i32 noundef 1, float noundef 2.000000e+00)
  %64 = load ptr, ptr %5, align 8
  %65 = load ptr, ptr %13, align 8
  %66 = getelementptr inbounds %struct.dtOffMeshConnection, ptr %65, i32 0, i32 0
  %67 = getelementptr inbounds [6 x float], ptr %66, i64 0, i64 0
  %68 = load float, ptr %67, align 4
  %69 = load ptr, ptr %13, align 8
  %70 = getelementptr inbounds %struct.dtOffMeshConnection, ptr %69, i32 0, i32 0
  %71 = getelementptr inbounds [6 x float], ptr %70, i64 0, i64 1
  %72 = load float, ptr %71, align 4
  %73 = load ptr, ptr %13, align 8
  %74 = getelementptr inbounds %struct.dtOffMeshConnection, ptr %73, i32 0, i32 0
  %75 = getelementptr inbounds [6 x float], ptr %74, i64 0, i64 2
  %76 = load float, ptr %75, align 4
  %77 = load ptr, ptr %13, align 8
  %78 = getelementptr inbounds %struct.dtOffMeshConnection, ptr %77, i32 0, i32 0
  %79 = getelementptr inbounds [6 x float], ptr %78, i64 0, i64 3
  %80 = load float, ptr %79, align 4
  %81 = load ptr, ptr %13, align 8
  %82 = getelementptr inbounds %struct.dtOffMeshConnection, ptr %81, i32 0, i32 0
  %83 = getelementptr inbounds [6 x float], ptr %82, i64 0, i64 4
  %84 = load float, ptr %83, align 4
  %85 = load ptr, ptr %13, align 8
  %86 = getelementptr inbounds %struct.dtOffMeshConnection, ptr %85, i32 0, i32 0
  %87 = getelementptr inbounds [6 x float], ptr %86, i64 0, i64 5
  %88 = load float, ptr %87, align 4
  %89 = load ptr, ptr %13, align 8
  %90 = getelementptr inbounds %struct.dtOffMeshConnection, ptr %89, i32 0, i32 3
  %91 = load i8, ptr %90, align 2
  %92 = zext i8 %91 to i32
  %93 = and i32 %92, 1
  %94 = icmp ne i32 %93, 0
  %95 = select i1 %94, float 0x3FE3333340000000, float 0.000000e+00
  %96 = load i32, ptr %11, align 4
  call void @_Z11duAppendArcP11duDebugDrawfffffffffj(ptr noundef %64, float noundef %68, float noundef %72, float noundef %76, float noundef %80, float noundef %84, float noundef %88, float noundef 2.500000e-01, float noundef %95, float noundef 0x3FE3333340000000, i32 noundef %96)
  %97 = load ptr, ptr %5, align 8
  %98 = load ptr, ptr %97, align 8
  %99 = getelementptr inbounds ptr, ptr %98, i64 9
  %100 = load ptr, ptr %99, align 8
  call void %100(ptr noundef nonnull align 8 dereferenceable(8) %97)
  br label %209

101:                                              ; preds = %27
  %102 = load ptr, ptr %9, align 8
  %103 = getelementptr inbounds %struct.dtMeshTile, ptr %102, i32 0, i32 6
  %104 = load ptr, ptr %103, align 8
  %105 = load i32, ptr %12, align 4
  %106 = zext i32 %105 to i64
  %107 = getelementptr inbounds %struct.dtPolyDetail, ptr %104, i64 %106
  store ptr %107, ptr %14, align 8
  %108 = load ptr, ptr %5, align 8
  %109 = load ptr, ptr %108, align 8
  %110 = getelementptr inbounds ptr, ptr %109, i64 4
  %111 = load ptr, ptr %110, align 8
  call void %111(ptr noundef nonnull align 8 dereferenceable(8) %108, i32 noundef 2, float noundef 1.000000e+00)
  store i32 0, ptr %15, align 4
  br label %112

112:                                              ; preds = %201, %101
  %113 = load i32, ptr %15, align 4
  %114 = load ptr, ptr %14, align 8
  %115 = getelementptr inbounds %struct.dtPolyDetail, ptr %114, i32 0, i32 3
  %116 = load i8, ptr %115, align 1
  %117 = zext i8 %116 to i32
  %118 = icmp slt i32 %113, %117
  br i1 %118, label %119, label %204

119:                                              ; preds = %112
  %120 = load ptr, ptr %9, align 8
  %121 = getelementptr inbounds %struct.dtMeshTile, ptr %120, i32 0, i32 8
  %122 = load ptr, ptr %121, align 8
  %123 = load ptr, ptr %14, align 8
  %124 = getelementptr inbounds %struct.dtPolyDetail, ptr %123, i32 0, i32 1
  %125 = load i32, ptr %124, align 4
  %126 = load i32, ptr %15, align 4
  %127 = add i32 %125, %126
  %128 = mul i32 %127, 4
  %129 = zext i32 %128 to i64
  %130 = getelementptr inbounds i8, ptr %122, i64 %129
  store ptr %130, ptr %16, align 8
  store i32 0, ptr %17, align 4
  br label %131

131:                                              ; preds = %197, %119
  %132 = load i32, ptr %17, align 4
  %133 = icmp slt i32 %132, 3
  br i1 %133, label %134, label %200

134:                                              ; preds = %131
  %135 = load ptr, ptr %16, align 8
  %136 = load i32, ptr %17, align 4
  %137 = sext i32 %136 to i64
  %138 = getelementptr inbounds i8, ptr %135, i64 %137
  %139 = load i8, ptr %138, align 1
  %140 = zext i8 %139 to i32
  %141 = load ptr, ptr %10, align 8
  %142 = getelementptr inbounds %struct.dtPoly, ptr %141, i32 0, i32 4
  %143 = load i8, ptr %142, align 2
  %144 = zext i8 %143 to i32
  %145 = icmp slt i32 %140, %144
  br i1 %145, label %146, label %169

146:                                              ; preds = %134
  %147 = load ptr, ptr %5, align 8
  %148 = load ptr, ptr %9, align 8
  %149 = getelementptr inbounds %struct.dtMeshTile, ptr %148, i32 0, i32 4
  %150 = load ptr, ptr %149, align 8
  %151 = load ptr, ptr %10, align 8
  %152 = getelementptr inbounds %struct.dtPoly, ptr %151, i32 0, i32 1
  %153 = load ptr, ptr %16, align 8
  %154 = load i32, ptr %17, align 4
  %155 = sext i32 %154 to i64
  %156 = getelementptr inbounds i8, ptr %153, i64 %155
  %157 = load i8, ptr %156, align 1
  %158 = zext i8 %157 to i64
  %159 = getelementptr inbounds [6 x i16], ptr %152, i64 0, i64 %158
  %160 = load i16, ptr %159, align 2
  %161 = zext i16 %160 to i32
  %162 = mul nsw i32 %161, 3
  %163 = sext i32 %162 to i64
  %164 = getelementptr inbounds float, ptr %150, i64 %163
  %165 = load i32, ptr %11, align 4
  %166 = load ptr, ptr %147, align 8
  %167 = getelementptr inbounds ptr, ptr %166, i64 5
  %168 = load ptr, ptr %167, align 8
  call void %168(ptr noundef nonnull align 8 dereferenceable(8) %147, ptr noundef %164, i32 noundef %165)
  br label %196

169:                                              ; preds = %134
  %170 = load ptr, ptr %5, align 8
  %171 = load ptr, ptr %9, align 8
  %172 = getelementptr inbounds %struct.dtMeshTile, ptr %171, i32 0, i32 7
  %173 = load ptr, ptr %172, align 8
  %174 = load ptr, ptr %14, align 8
  %175 = getelementptr inbounds %struct.dtPolyDetail, ptr %174, i32 0, i32 0
  %176 = load i32, ptr %175, align 4
  %177 = load ptr, ptr %16, align 8
  %178 = load i32, ptr %17, align 4
  %179 = sext i32 %178 to i64
  %180 = getelementptr inbounds i8, ptr %177, i64 %179
  %181 = load i8, ptr %180, align 1
  %182 = zext i8 %181 to i32
  %183 = add i32 %176, %182
  %184 = load ptr, ptr %10, align 8
  %185 = getelementptr inbounds %struct.dtPoly, ptr %184, i32 0, i32 4
  %186 = load i8, ptr %185, align 2
  %187 = zext i8 %186 to i32
  %188 = sub i32 %183, %187
  %189 = mul i32 %188, 3
  %190 = zext i32 %189 to i64
  %191 = getelementptr inbounds float, ptr %173, i64 %190
  %192 = load i32, ptr %11, align 4
  %193 = load ptr, ptr %170, align 8
  %194 = getelementptr inbounds ptr, ptr %193, i64 5
  %195 = load ptr, ptr %194, align 8
  call void %195(ptr noundef nonnull align 8 dereferenceable(8) %170, ptr noundef %191, i32 noundef %192)
  br label %196

196:                                              ; preds = %169, %146
  br label %197

197:                                              ; preds = %196
  %198 = load i32, ptr %17, align 4
  %199 = add nsw i32 %198, 1
  store i32 %199, ptr %17, align 4
  br label %131, !llvm.loop !25

200:                                              ; preds = %131
  br label %201

201:                                              ; preds = %200
  %202 = load i32, ptr %15, align 4
  %203 = add nsw i32 %202, 1
  store i32 %203, ptr %15, align 4
  br label %112, !llvm.loop !26

204:                                              ; preds = %112
  %205 = load ptr, ptr %5, align 8
  %206 = load ptr, ptr %205, align 8
  %207 = getelementptr inbounds ptr, ptr %206, i64 9
  %208 = load ptr, ptr %207, align 8
  call void %208(ptr noundef nonnull align 8 dereferenceable(8) %205)
  br label %209

209:                                              ; preds = %204, %47
  %210 = load ptr, ptr %5, align 8
  %211 = load ptr, ptr %210, align 8
  %212 = getelementptr inbounds ptr, ptr %211, i64 2
  %213 = load ptr, ptr %212, align 8
  call void %213(ptr noundef nonnull align 8 dereferenceable(8) %210, i1 noundef zeroext true)
  br label %214

214:                                              ; preds = %209, %26, %20
  ret void
}