; Function Attrs: mustprogress uwtable
define void @_Z22duDebugDrawNavMeshPolyP11duDebugDrawRK9dtNavMeshjj(ptr noundef %0, ptr noundef nonnull align 8 dereferenceable(100) %1, i32 noundef %2, i32 noundef %3) local_unnamed_addr #0 {
  %5 = alloca ptr, align 8
  %6 = alloca ptr, align 8
  %.not = icmp eq ptr %0, null
  br i1 %.not, label %117, label %7

7:                                                ; preds = %4
  store ptr null, ptr %5, align 8
  store ptr null, ptr %6, align 8
  %8 = call noundef i32 @_ZNK9dtNavMesh19getTileAndPolyByRefEjPPK10dtMeshTilePPK6dtPoly(ptr noundef nonnull align 8 dereferenceable(100) %1, i32 noundef %2, ptr noundef nonnull %5, ptr noundef nonnull %6)
  %9 = icmp slt i32 %8, 0
  br i1 %9, label %117, label %10

10:                                               ; preds = %7
  %11 = load ptr, ptr %0, align 8
  %12 = getelementptr inbounds nuw i8, ptr %11, i64 16
  %13 = load ptr, ptr %12, align 8
  call void %13(ptr noundef nonnull align 8 dereferenceable(8) %0, i1 noundef zeroext false)
  %14 = and i32 %3, 16777215
  %15 = or disjoint i32 %14, 1073741824
  %16 = load ptr, ptr %6, align 8
  %17 = load ptr, ptr %5, align 8
  %18 = getelementptr inbounds nuw i8, ptr %17, i64 16
  %19 = load ptr, ptr %18, align 8
  %20 = ptrtoint ptr %16 to i64
  %21 = ptrtoint ptr %19 to i64
  %22 = sub i64 %20, %21
  %23 = lshr exact i64 %22, 5
  %24 = getelementptr inbounds nuw i8, ptr %16, i64 31
  %25 = load i8, ptr %24, align 1
  %.mask = and i8 %25, -64
  %26 = icmp eq i8 %.mask, 64
  br i1 %26, label %27, label %56

27:                                               ; preds = %10
  %28 = trunc i64 %23 to i32
  %29 = getelementptr inbounds nuw i8, ptr %17, i64 72
  %30 = load ptr, ptr %29, align 8
  %31 = getelementptr inbounds nuw i8, ptr %17, i64 8
  %32 = load ptr, ptr %31, align 8
  %33 = getelementptr inbounds nuw i8, ptr %32, i64 56
  %34 = load i32, ptr %33, align 4
  %35 = sub i32 %28, %34
  %36 = zext i32 %35 to i64
  %37 = getelementptr inbounds nuw %struct.dtOffMeshConnection, ptr %30, i64 %36
  %38 = load ptr, ptr %0, align 8
  %39 = getelementptr inbounds nuw i8, ptr %38, i64 32
  %40 = load ptr, ptr %39, align 8
  call void %40(ptr noundef nonnull align 8 dereferenceable(8) %0, i32 noundef 1, float noundef 2.000000e+00)
  %41 = load float, ptr %37, align 4
  %42 = getelementptr inbounds nuw i8, ptr %37, i64 4
  %43 = load float, ptr %42, align 4
  %44 = getelementptr inbounds nuw i8, ptr %37, i64 8
  %45 = load float, ptr %44, align 4
  %46 = getelementptr inbounds nuw i8, ptr %37, i64 12
  %47 = load float, ptr %46, align 4
  %48 = getelementptr inbounds nuw i8, ptr %37, i64 16
  %49 = load float, ptr %48, align 4
  %50 = getelementptr inbounds nuw i8, ptr %37, i64 20
  %51 = load float, ptr %50, align 4
  %52 = getelementptr inbounds nuw i8, ptr %37, i64 30
  %53 = load i8, ptr %52, align 2
  %54 = and i8 %53, 1
  %.not42 = icmp eq i8 %54, 0
  %55 = select i1 %.not42, float 0.000000e+00, float 0x3FE3333340000000
  call void @_Z11duAppendArcP11duDebugDrawfffffffffj(ptr noundef nonnull %0, float noundef %41, float noundef %43, float noundef %45, float noundef %47, float noundef %49, float noundef %51, float noundef 2.500000e-01, float noundef %55, float noundef 0x3FE3333340000000, i32 noundef %15)
  br label %._crit_edge

56:                                               ; preds = %10
  %57 = getelementptr inbounds nuw i8, ptr %17, i64 40
  %58 = load ptr, ptr %57, align 8
  %59 = and i64 %23, 4294967295
  %60 = getelementptr inbounds nuw %struct.dtPolyDetail, ptr %58, i64 %59
  %61 = load ptr, ptr %0, align 8
  %62 = getelementptr inbounds nuw i8, ptr %61, i64 32
  %63 = load ptr, ptr %62, align 8
  call void %63(ptr noundef nonnull align 8 dereferenceable(8) %0, i32 noundef 2, float noundef 1.000000e+00)
  %64 = getelementptr inbounds nuw i8, ptr %60, i64 9
  %65 = load i8, ptr %64, align 1
  %.not45 = icmp eq i8 %65, 0
  br i1 %.not45, label %._crit_edge, label %.lr.ph

.lr.ph:                                           ; preds = %56
  %66 = getelementptr inbounds nuw i8, ptr %60, i64 4
  br label %67

67:                                               ; preds = %.lr.ph, %106
  %.03844 = phi i32 [ 0, %.lr.ph ], [ %107, %106 ]
  %68 = load ptr, ptr %5, align 8
  %69 = getelementptr inbounds nuw i8, ptr %68, i64 56
  %70 = load ptr, ptr %69, align 8
  %71 = load i32, ptr %66, align 4
  %72 = add i32 %71, %.03844
  %73 = shl i32 %72, 2
  %74 = zext i32 %73 to i64
  %75 = getelementptr inbounds nuw i8, ptr %70, i64 %74
  br label %76

76:                                               ; preds = %67, %105
  %indvars.iv = phi i64 [ 0, %67 ], [ %indvars.iv.next, %105 ]
  %77 = getelementptr inbounds nuw i8, ptr %75, i64 %indvars.iv
  %78 = load i8, ptr %77, align 1
  %79 = load ptr, ptr %6, align 8
  %80 = getelementptr inbounds nuw i8, ptr %79, i64 30
  %81 = load i8, ptr %80, align 2
  %82 = icmp ult i8 %78, %81
  %83 = load ptr, ptr %5, align 8
  %84 = load ptr, ptr %0, align 8
  %85 = getelementptr inbounds nuw i8, ptr %84, i64 40
  %86 = load ptr, ptr %85, align 8
  br i1 %82, label %87, label %96

87:                                               ; preds = %76
  %88 = getelementptr inbounds nuw i8, ptr %83, i64 24
  %89 = load ptr, ptr %88, align 8
  %90 = getelementptr inbounds nuw i8, ptr %79, i64 4
  %91 = zext i8 %78 to i64
  %92 = getelementptr inbounds nuw [6 x i16], ptr %90, i64 0, i64 %91
  %93 = load i16, ptr %92, align 2
  %94 = zext i16 %93 to i64
  %.idx = mul nuw nsw i64 %94, 12
  %95 = getelementptr inbounds nuw i8, ptr %89, i64 %.idx
  br label %105

96:                                               ; preds = %76
  %97 = getelementptr inbounds nuw i8, ptr %83, i64 48
  %98 = load ptr, ptr %97, align 8
  %99 = load i32, ptr %60, align 4
  %narrow = sub nuw i8 %78, %81
  %100 = zext i8 %narrow to i32
  %101 = add i32 %99, %100
  %102 = mul i32 %101, 3
  %103 = zext i32 %102 to i64
  %104 = getelementptr inbounds nuw float, ptr %98, i64 %103
  br label %105

105:                                              ; preds = %87, %96
  %.sink = phi ptr [ %95, %87 ], [ %104, %96 ]
  call void %86(ptr noundef nonnull align 8 dereferenceable(8) %0, ptr noundef %.sink, i32 noundef %15)
  %indvars.iv.next = add nuw nsw i64 %indvars.iv, 1
  %exitcond.not = icmp eq i64 %indvars.iv.next, 3
  br i1 %exitcond.not, label %106, label %76, !llvm.loop !26

106:                                              ; preds = %105
  %107 = add nuw nsw i32 %.03844, 1
  %108 = load i8, ptr %64, align 1
  %109 = zext i8 %108 to i32
  %110 = icmp samesign ult i32 %107, %109
  br i1 %110, label %67, label %._crit_edge, !llvm.loop !27

._crit_edge:                                      ; preds = %106, %56, %27
  %111 = load ptr, ptr %0, align 8
  %112 = getelementptr inbounds nuw i8, ptr %111, i64 72
  %113 = load ptr, ptr %112, align 8
  call void %113(ptr noundef nonnull align 8 dereferenceable(8) %0)
  %114 = load ptr, ptr %0, align 8
  %115 = getelementptr inbounds nuw i8, ptr %114, i64 16
  %116 = load ptr, ptr %115, align 8
  call void %116(ptr noundef nonnull align 8 dereferenceable(8) %0, i1 noundef zeroext true)
  br label %117

117:                                              ; preds = %7, %4, %._crit_edge
  ret void
}